target datalayout = "e-m:e-p270:32:32-p271:32:32-p272:64:64-i64:64-i128:128-f80:128-n8:16:32:64-S128"
target triple = "x86_64-unknown-linux-gnu"

%"class.std::__shared_count" = type { ptr }
%"class.std::shared_ptr.8" = type { %"class.std::__shared_ptr.9" }
%"class.std::__shared_ptr.9" = type { ptr, %"class.std::__shared_count" }
%"class.OpenColorIO_v2_4dev::(anonymous namespace)::ECRendererBase" = type { %"class.OpenColorIO_v2_4dev::OpCPU", %"class.std::shared_ptr.8", %"class.std::shared_ptr.8", %"class.std::shared_ptr.8", float, float }
%"class.OpenColorIO_v2_4dev::OpCPU" = type { ptr }

@_ZN19OpenColorIO_v2_4dev2ECL12MIN_CONTRASTE = internal constant double 1.000000e-03, align 8

; Function Attrs: mustprogress nounwind uwtable
define linkonce_odr hidden noundef ptr @_ZNKSt12__shared_ptrIN19OpenColorIO_v2_4dev25DynamicPropertyDoubleImplELN9__gnu_cxx12_Lock_policyE2EE3getEv(ptr noundef nonnull align 8 dereferenceable(16) %this) #5 comdat align 2 {
entry:
  %this.addr = alloca ptr, align 8
  store ptr %this, ptr %this.addr, align 8
  %this1 = load ptr, ptr %this.addr, align 8
  %_M_ptr = getelementptr inbounds %"class.std::__shared_ptr.9", ptr %this1, i32 0, i32 0
  %0 = load ptr, ptr %_M_ptr, align 8
  ret ptr %0
}

; Function Attrs: mustprogress nounwind uwtable
define linkonce_odr hidden noundef ptr @_ZNKSt19__shared_ptr_accessIN19OpenColorIO_v2_4dev25DynamicPropertyDoubleImplELN9__gnu_cxx12_Lock_policyE2ELb0ELb0EE6_M_getEv(ptr noundef nonnull align 1 dereferenceable(1) %this) #5 comdat align 2 {
entry:
  %this.addr = alloca ptr, align 8
  store ptr %this, ptr %this.addr, align 8
  %this1 = load ptr, ptr %this.addr, align 8
  %call = call noundef ptr @_ZNKSt12__shared_ptrIN19OpenColorIO_v2_4dev25DynamicPropertyDoubleImplELN9__gnu_cxx12_Lock_policyE2EE3getEv(ptr noundef nonnull align 8 dereferenceable(16) %this1) #3
  ret ptr %call
}

; Function Attrs: mustprogress nounwind uwtable
define linkonce_odr noundef nonnull align 8 dereferenceable(8) ptr @_ZSt3maxIdERKT_S2_S2_(ptr noundef nonnull align 8 dereferenceable(8) %__a, ptr noundef nonnull align 8 dereferenceable(8) %__b) #5 comdat {
entry:
  %retval = alloca ptr, align 8
  %__a.addr = alloca ptr, align 8
  %__b.addr = alloca ptr, align 8
  store ptr %__a, ptr %__a.addr, align 8
  store ptr %__b, ptr %__b.addr, align 8
  %0 = load ptr, ptr %__a.addr, align 8
  %1 = load double, ptr %0, align 8
  %2 = load ptr, ptr %__b.addr, align 8
  %3 = load double, ptr %2, align 8
  %cmp = fcmp olt double %1, %3
  br i1 %cmp, label %if.then, label %if.end

if.then:                                          ; preds = %entry
  %4 = load ptr, ptr %__b.addr, align 8
  store ptr %4, ptr %retval, align 8
  br label %return

if.end:                                           ; preds = %entry
  %5 = load ptr, ptr %__a.addr, align 8
  store ptr %5, ptr %retval, align 8
  br label %return

return:                                           ; preds = %if.end, %if.then
  %6 = load ptr, ptr %retval, align 8
  ret ptr %6
}

; Function Attrs: mustprogress nounwind uwtable
define linkonce_odr hidden noundef ptr @_ZNKSt19__shared_ptr_accessIN19OpenColorIO_v2_4dev25DynamicPropertyDoubleImplELN9__gnu_cxx12_Lock_policyE2ELb0ELb0EEptEv(ptr noundef nonnull align 1 dereferenceable(1) %this) #5 comdat align 2 {
entry:
  %this.addr = alloca ptr, align 8
  store ptr %this, ptr %this.addr, align 8
  %this1 = load ptr, ptr %this.addr, align 8
  %call = call noundef ptr @_ZNKSt19__shared_ptr_accessIN19OpenColorIO_v2_4dev25DynamicPropertyDoubleImplELN9__gnu_cxx12_Lock_policyE2ELb0ELb0EE6_M_getEv(ptr noundef nonnull align 1 dereferenceable(1) %this1) #3
  ret ptr %call
}

; Function Attrs: mustprogress uwtable
define internal void @_ZNK19OpenColorIO_v2_4dev12_GLOBAL__N_121ECLogarithmicRenderer5applyEPKvPvl(ptr noundef nonnull align 8 dereferenceable(64) %this, ptr noundef %inImg, ptr noundef %outImg, i64 noundef %numPixels) unnamed_addr #12 align 2 {
entry:
  %__a.addr.i40 = alloca <4 x float>, align 16
  %__b.addr.i41 = alloca <4 x float>, align 16
  %__a.addr.i39 = alloca <4 x float>, align 16
  %__b.addr.i = alloca <4 x float>, align 16
  %__p.addr.i = alloca ptr, align 8
  %__a.addr.i = alloca <4 x float>, align 16
  %__z.addr.i = alloca float, align 4
  %__y.addr.i = alloca float, align 4
  %__x.addr.i = alloca float, align 4
  %__w.addr.i33 = alloca float, align 4
  %.compoundliteral.i34 = alloca <4 x float>, align 16
  %__w.addr.i27 = alloca float, align 4
  %.compoundliteral.i28 = alloca <4 x float>, align 16
  %__w.addr.i = alloca float, align 4
  %.compoundliteral.i = alloca <4 x float>, align 16
  %this.addr = alloca ptr, align 8
  %inImg.addr = alloca ptr, align 8
  %outImg.addr = alloca ptr, align 8
  %numPixels.addr = alloca i64, align 8
  %exposureVal = alloca float, align 4
  %contrastVal = alloca float, align 4
  %ref.tmp = alloca double, align 8
  %offsetVal = alloca float, align 4
  %in = alloca ptr, align 8
  %out = alloca ptr, align 8
  %contrast = alloca <4 x float>, align 16
  %offset = alloca <4 x float>, align 16
  %idx = alloca i64, align 8
  %outAlpha = alloca float, align 4
  %data = alloca <4 x float>, align 16
  store ptr %this, ptr %this.addr, align 8
  store ptr %inImg, ptr %inImg.addr, align 8
  store ptr %outImg, ptr %outImg.addr, align 8
  store i64 %numPixels, ptr %numPixels.addr, align 8
  %this1 = load ptr, ptr %this.addr, align 8
  %m_exposure = getelementptr inbounds %"class.OpenColorIO_v2_4dev::(anonymous namespace)::ECRendererBase", ptr %this1, i32 0, i32 1
  %call = call noundef ptr @_ZNKSt19__shared_ptr_accessIN19OpenColorIO_v2_4dev25DynamicPropertyDoubleImplELN9__gnu_cxx12_Lock_policyE2ELb0ELb0EEptEv(ptr noundef nonnull align 1 dereferenceable(1) %m_exposure) #3
  %vtable = load ptr, ptr %call, align 8
  %vfn = getelementptr inbounds ptr, ptr %vtable, i64 3
  %0 = load ptr, ptr %vfn, align 8
  %call2 = call noundef double %0(ptr noundef nonnull align 8 dereferenceable(32) %call)
  %conv = fptrunc double %call2 to float
  %m_logExposureStep = getelementptr inbounds %"class.OpenColorIO_v2_4dev::(anonymous namespace)::ECRendererBase", ptr %this1, i32 0, i32 5
  %1 = load float, ptr %m_logExposureStep, align 4
  %mul = fmul float %conv, %1
  store float %mul, ptr %exposureVal, align 4
  %m_contrast = getelementptr inbounds %"class.OpenColorIO_v2_4dev::(anonymous namespace)::ECRendererBase", ptr %this1, i32 0, i32 2
  %call3 = call noundef ptr @_ZNKSt19__shared_ptr_accessIN19OpenColorIO_v2_4dev25DynamicPropertyDoubleImplELN9__gnu_cxx12_Lock_policyE2ELb0ELb0EEptEv(ptr noundef nonnull align 1 dereferenceable(1) %m_contrast) #3
  %vtable4 = load ptr, ptr %call3, align 8
  %vfn5 = getelementptr inbounds ptr, ptr %vtable4, i64 3
  %2 = load ptr, ptr %vfn5, align 8
  %call6 = call noundef double %2(ptr noundef nonnull align 8 dereferenceable(32) %call3)
  %m_gamma = getelementptr inbounds %"class.OpenColorIO_v2_4dev::(anonymous namespace)::ECRendererBase", ptr %this1, i32 0, i32 3
  %call7 = call noundef ptr @_ZNKSt19__shared_ptr_accessIN19OpenColorIO_v2_4dev25DynamicPropertyDoubleImplELN9__gnu_cxx12_Lock_policyE2ELb0ELb0EEptEv(ptr noundef nonnull align 1 dereferenceable(1) %m_gamma) #3
  %vtable8 = load ptr, ptr %call7, align 8
  %vfn9 = getelementptr inbounds ptr, ptr %vtable8, i64 3
  %3 = load ptr, ptr %vfn9, align 8
  %call10 = call noundef double %3(ptr noundef nonnull align 8 dereferenceable(32) %call7)
  %mul11 = fmul double %call6, %call10
  store double %mul11, ptr %ref.tmp, align 8
  %call12 = call noundef nonnull align 8 dereferenceable(8) ptr @_ZSt3maxIdERKT_S2_S2_(ptr noundef nonnull align 8 dereferenceable(8) @_ZN19OpenColorIO_v2_4dev2ECL12MIN_CONTRASTE, ptr noundef nonnull align 8 dereferenceable(8) %ref.tmp)
  %4 = load double, ptr %call12, align 8
  %conv13 = fptrunc double %4 to float
  store float %conv13, ptr %contrastVal, align 4
  %5 = load float, ptr %exposureVal, align 4
  %m_pivot = getelementptr inbounds %"class.OpenColorIO_v2_4dev::(anonymous namespace)::ECRendererBase", ptr %this1, i32 0, i32 4
  %6 = load float, ptr %m_pivot, align 8
  %sub = fsub float %5, %6
  %7 = load float, ptr %contrastVal, align 4
  %m_pivot15 = getelementptr inbounds %"class.OpenColorIO_v2_4dev::(anonymous namespace)::ECRendererBase", ptr %this1, i32 0, i32 4
  %8 = load float, ptr %m_pivot15, align 8
  %9 = call float @llvm.fmuladd.f32(float %sub, float %7, float %8)
  store float %9, ptr %offsetVal, align 4
  %10 = load ptr, ptr %inImg.addr, align 8
  store ptr %10, ptr %in, align 8
  %11 = load ptr, ptr %outImg.addr, align 8
  store ptr %11, ptr %out, align 8
  %12 = load float, ptr %contrastVal, align 4
  store float %12, ptr %__w.addr.i27, align 4
  %13 = load float, ptr %__w.addr.i27, align 4
  %vecinit.i29 = insertelement <4 x float> undef, float %13, i32 0
  %14 = load float, ptr %__w.addr.i27, align 4
  %vecinit1.i30 = insertelement <4 x float> %vecinit.i29, float %14, i32 1
  %15 = load float, ptr %__w.addr.i27, align 4
  %vecinit2.i31 = insertelement <4 x float> %vecinit1.i30, float %15, i32 2
  %16 = load float, ptr %__w.addr.i27, align 4
  %vecinit3.i32 = insertelement <4 x float> %vecinit2.i31, float %16, i32 3
  store <4 x float> %vecinit3.i32, ptr %.compoundliteral.i28, align 16
  %17 = load <4 x float>, ptr %.compoundliteral.i28, align 16
  store <4 x float> %17, ptr %contrast, align 16
  %18 = load float, ptr %offsetVal, align 4
  store float %18, ptr %__w.addr.i, align 4
  %19 = load float, ptr %__w.addr.i, align 4
  %vecinit.i = insertelement <4 x float> undef, float %19, i32 0
  %20 = load float, ptr %__w.addr.i, align 4
  %vecinit1.i = insertelement <4 x float> %vecinit.i, float %20, i32 1
  %21 = load float, ptr %__w.addr.i, align 4
  %vecinit2.i = insertelement <4 x float> %vecinit1.i, float %21, i32 2
  %22 = load float, ptr %__w.addr.i, align 4
  %vecinit3.i = insertelement <4 x float> %vecinit2.i, float %22, i32 3
  store <4 x float> %vecinit3.i, ptr %.compoundliteral.i, align 16
  %23 = load <4 x float>, ptr %.compoundliteral.i, align 16
  store <4 x float> %23, ptr %offset, align 16
  store i64 0, ptr %idx, align 8
  br label %for.cond

for.cond:                                         ; preds = %for.inc, %entry
  %24 = load i64, ptr %idx, align 8
  %25 = load i64, ptr %numPixels.addr, align 8
  %cmp = icmp slt i64 %24, %25
  br i1 %cmp, label %for.body, label %for.end

for.body:                                         ; preds = %for.cond
  %26 = load ptr, ptr %in, align 8
  %arrayidx = getelementptr inbounds float, ptr %26, i64 3
  %27 = load float, ptr %arrayidx, align 4
  store float %27, ptr %outAlpha, align 4
  %28 = load ptr, ptr %in, align 8
  %arrayidx18 = getelementptr inbounds float, ptr %28, i64 3
  %29 = load float, ptr %arrayidx18, align 4
  %30 = load ptr, ptr %in, align 8
  %arrayidx19 = getelementptr inbounds float, ptr %30, i64 2
  %31 = load float, ptr %arrayidx19, align 4
  %32 = load ptr, ptr %in, align 8
  %arrayidx20 = getelementptr inbounds float, ptr %32, i64 1
  %33 = load float, ptr %arrayidx20, align 4
  %34 = load ptr, ptr %in, align 8
  %arrayidx21 = getelementptr inbounds float, ptr %34, i64 0
  %35 = load float, ptr %arrayidx21, align 4
  store float %29, ptr %__z.addr.i, align 4
  store float %31, ptr %__y.addr.i, align 4
  store float %33, ptr %__x.addr.i, align 4
  store float %35, ptr %__w.addr.i33, align 4
  %36 = load float, ptr %__w.addr.i33, align 4
  %vecinit.i35 = insertelement <4 x float> undef, float %36, i32 0
  %37 = load float, ptr %__x.addr.i, align 4
  %vecinit1.i36 = insertelement <4 x float> %vecinit.i35, float %37, i32 1
  %38 = load float, ptr %__y.addr.i, align 4
  %vecinit2.i37 = insertelement <4 x float> %vecinit1.i36, float %38, i32 2
  %39 = load float, ptr %__z.addr.i, align 4
  %vecinit3.i38 = insertelement <4 x float> %vecinit2.i37, float %39, i32 3
  store <4 x float> %vecinit3.i38, ptr %.compoundliteral.i34, align 16
  %40 = load <4 x float>, ptr %.compoundliteral.i34, align 16
  store <4 x float> %40, ptr %data, align 16
  %41 = load ptr, ptr %out, align 8
  %42 = load <4 x float>, ptr %offset, align 16
  %43 = load <4 x float>, ptr %data, align 16
  %44 = load <4 x float>, ptr %contrast, align 16
  store <4 x float> %43, ptr %__a.addr.i39, align 16
  store <4 x float> %44, ptr %__b.addr.i, align 16
  %45 = load <4 x float>, ptr %__a.addr.i39, align 16
  %46 = load <4 x float>, ptr %__b.addr.i, align 16
  %mul.i = fmul <4 x float> %45, %46
  store <4 x float> %42, ptr %__a.addr.i40, align 16
  store <4 x float> %mul.i, ptr %__b.addr.i41, align 16
  %47 = load <4 x float>, ptr %__a.addr.i40, align 16
  %48 = load <4 x float>, ptr %__b.addr.i41, align 16
  %add.i = fadd <4 x float> %47, %48
  store ptr %41, ptr %__p.addr.i, align 8
  store <4 x float> %add.i, ptr %__a.addr.i, align 16
  %49 = load <4 x float>, ptr %__a.addr.i, align 16
  %50 = load ptr, ptr %__p.addr.i, align 8
  store <4 x float> %49, ptr %50, align 1
  %51 = load float, ptr %outAlpha, align 4
  %52 = load ptr, ptr %out, align 8
  %arrayidx25 = getelementptr inbounds float, ptr %52, i64 3
  store float %51, ptr %arrayidx25, align 4
  %53 = load ptr, ptr %in, align 8
  %add.ptr = getelementptr inbounds float, ptr %53, i64 4
  store ptr %add.ptr, ptr %in, align 8
  %54 = load ptr, ptr %out, align 8
  %add.ptr26 = getelementptr inbounds float, ptr %54, i64 4
  store ptr %add.ptr26, ptr %out, align 8
  br label %for.inc

for.inc:                                          ; preds = %for.body
  %55 = load i64, ptr %idx, align 8
  %inc = add nsw i64 %55, 1
  store i64 %inc, ptr %idx, align 8
  br label %for.cond, !llvm.loop !13

for.end:                                          ; preds = %for.cond
  ret void
}