; Function Attrs: mustprogress uwtable
define internal void @_ZNK19OpenColorIO_v2_4dev12_GLOBAL__N_121ECLogarithmicRenderer5applyEPKvPvl(ptr nocapture noundef nonnull readonly align 8 dereferenceable(64) %this, ptr nocapture noundef readonly %inImg, ptr nocapture noundef writeonly %outImg, i64 noundef %numPixels) unnamed_addr #9 align 2 {
entry:
  %m_exposure = getelementptr inbounds i8, ptr %this, i64 8
  %0 = load ptr, ptr %m_exposure, align 8
  %vtable = load ptr, ptr %0, align 8
  %vfn = getelementptr inbounds i8, ptr %vtable, i64 24
  %1 = load ptr, ptr %vfn, align 8
  %call2 = tail call noundef double %1(ptr noundef nonnull align 8 dereferenceable(32) %0)
  %conv = fptrunc double %call2 to float
  %m_logExposureStep = getelementptr inbounds i8, ptr %this, i64 60
  %2 = load float, ptr %m_logExposureStep, align 4
  %mul = fmul float %2, %conv
  %m_contrast = getelementptr inbounds i8, ptr %this, i64 24
  %3 = load ptr, ptr %m_contrast, align 8
  %vtable4 = load ptr, ptr %3, align 8
  %vfn5 = getelementptr inbounds i8, ptr %vtable4, i64 24
  %4 = load ptr, ptr %vfn5, align 8
  %call6 = tail call noundef double %4(ptr noundef nonnull align 8 dereferenceable(32) %3)
  %m_gamma = getelementptr inbounds i8, ptr %this, i64 40
  %5 = load ptr, ptr %m_gamma, align 8
  %vtable8 = load ptr, ptr %5, align 8
  %vfn9 = getelementptr inbounds i8, ptr %vtable8, i64 24
  %6 = load ptr, ptr %vfn9, align 8
  %call10 = tail call noundef double %6(ptr noundef nonnull align 8 dereferenceable(32) %5)
  %mul11 = fmul double %call6, %call10
  %cmp.i = fcmp ogt double %mul11, 1.000000e-03
  %.sroa.speculated = select i1 %cmp.i, double %mul11, double 1.000000e-03
  %conv13 = fptrunc double %.sroa.speculated to float
  %m_pivot = getelementptr inbounds i8, ptr %this, i64 56
  %7 = load float, ptr %m_pivot, align 8
  %sub = fsub float %mul, %7
  %8 = tail call float @llvm.fmuladd.f32(float %sub, float %conv13, float %7)
  %vecinit.i29 = insertelement <4 x float> poison, float %conv13, i64 0
  %vecinit3.i32 = shufflevector <4 x float> %vecinit.i29, <4 x float> poison, <4 x i32> zeroinitializer
  %vecinit.i = insertelement <4 x float> poison, float %8, i64 0
  %vecinit3.i = shufflevector <4 x float> %vecinit.i, <4 x float> poison, <4 x i32> zeroinitializer
  %cmp16 = icmp sgt i64 %numPixels, 0
  br i1 %cmp16, label %for.body, label %for.end

for.body:                                         ; preds = %entry, %for.body
  %in.019 = phi ptr [ %add.ptr, %for.body ], [ %inImg, %entry ]
  %out.018 = phi ptr [ %add.ptr26, %for.body ], [ %outImg, %entry ]
  %idx.017 = phi i64 [ %inc, %for.body ], [ 0, %entry ]
  %9 = load <4 x float>, ptr %in.019, align 4
  %mul.i = fmul <4 x float> %vecinit3.i32, %9
  %add.i = fadd <4 x float> %vecinit3.i, %mul.i
  store <4 x float> %add.i, ptr %out.018, align 1
  %arrayidx25 = getelementptr inbounds i8, ptr %out.018, i64 12
  %10 = extractelement <4 x float> %9, i64 3
  store float %10, ptr %arrayidx25, align 4
  %add.ptr = getelementptr inbounds i8, ptr %in.019, i64 16
  %add.ptr26 = getelementptr inbounds i8, ptr %out.018, i64 16
  %inc = add nuw nsw i64 %idx.017, 1
  %exitcond.not = icmp eq i64 %inc, %numPixels
  br i1 %exitcond.not, label %for.end, label %for.body, !llvm.loop !40

for.end:                                          ; preds = %for.body, %entry
  ret void
}